target datalayout = "e-m:e-p270:32:32-p271:32:32-p272:64:64-i64:64-i128:128-f80:128-n8:16:32:64-S128"
target triple = "x86_64-pc-linux-gnu"

%struct.strvec = type { ptr, i64, i64 }
%struct.strbuf = type { i64, i64, ptr }
%struct.commit = type { %struct.object, i64, ptr, ptr, i32 }
%struct.object = type { i32, %struct.object_id }
%struct.object_id = type { [32 x i8], i32 }
%struct.oidset = type { %struct.kh_oid_set }
%struct.kh_oid_set = type { i32, i32, i32, i32, ptr, ptr, ptr }
%struct.rev_info = type { ptr, %struct.object_array, ptr, %struct.object_array, %struct.rev_cmdline_info, %struct.list_objects_filter_options, %struct.ref_exclusions, ptr, ptr, ptr, %struct.pathspec, i32, i32, i32, i32, i64, i32, i32, %struct.date_mode, i32, i32, i32, i32, ptr, i32, i32, ptr, ptr, i32, ptr, ptr, %struct.ident_split, ptr, i32, ptr, ptr, ptr, i32, i32, i32, ptr, %struct.grep_opt, ptr, i32, i32, i64, i64, i64, i32, i32, ptr, ptr, ptr, %struct.diff_options, %struct.diff_options, ptr, %struct.decoration, %struct.decoration, %struct.decoration, %struct.display_notes_opt, ptr, ptr, ptr, ptr, ptr, i32, ptr, i32, i32, i32, %struct.decoration, ptr, ptr, ptr, ptr, ptr, ptr, ptr, i32, ptr, i32, ptr, %struct.oidset }
%struct.object_array = type { i32, i32, ptr }
%struct.rev_cmdline_info = type { i32, i32, ptr }
%struct.list_objects_filter_options = type { %struct.strbuf, i32, i8, ptr, i64, i64, i32, i64, i64, ptr }
%struct.ref_exclusions = type { %struct.string_list, %struct.strvec, i8 }
%struct.string_list = type { ptr, i64, i64, i8, ptr }
%struct.pathspec = type { i32, i8, i32, i32, ptr }
%struct.date_mode = type { i32, i32, ptr }
%struct.ident_split = type { ptr, ptr, ptr, ptr, ptr, ptr, ptr, ptr }
%struct.grep_opt = type { ptr, ptr, ptr, ptr, ptr, ptr, i32, i32, i32, i32, i32, i32, i32, i32, i32, i32, i32, i32, i32, i32, i32, i32, i32, i32, i32, i32, i32, i32, i32, i32, i32, i32, [9 x [75 x i8]], i32, i32, i32, i32, i32, i32, i32, ptr, ptr, ptr }
%struct.diff_options = type { ptr, ptr, i32, i32, ptr, i32, ptr, i64, i64, ptr, ptr, ptr, ptr, %struct.diff_flags, i32, i32, i32, i32, i32, i32, i32, i32, i32, i32, i32, i32, i32, i32, i32, i32, i32, i32, i32, i32, i32, i32, ptr, i32, ptr, i32, i32, ptr, i64, i64, i32, i32, i32, i32, ptr, i32, i32, ptr, i32, i32, ptr, ptr, i32, [3 x i8], %struct.pathspec, ptr, ptr, ptr, ptr, ptr, ptr, ptr, ptr, i32, ptr, i32, i32, ptr, ptr, i32 }
%struct.diff_flags = type { i32, i32, i32, i32, i32, i32, i32, i32, i32, i32, i32, i32, i32, i32, i32, i32, i32, i32, i32, i32, i32, i32, i32, i32, i32, i32, i32, i32, i32, i32, i32, i32, i32, i32, i32 }
%struct.display_notes_opt = type { i32, %struct.string_list }
%struct.decoration = type { ptr, i32, i32, ptr }

@.str.29 = private unnamed_addr constant [2 x i8] c"-\00", align 1
@.str.30 = private unnamed_addr constant [2 x i8] c"^\00", align 1
@.str.31 = private unnamed_addr constant [2 x i8] c"=\00", align 1
@.str.32 = private unnamed_addr constant [2 x i8] c"<\00", align 1
@.str.33 = private unnamed_addr constant [2 x i8] c">\00", align 1
@.str.34 = private unnamed_addr constant [2 x i8] c"*\00", align 1
@.str.35 = private unnamed_addr constant [2 x i8] c"+\00", align 1
@.str.36 = private unnamed_addr constant [1 x i8] zeroinitializer, align 1
@stdout = external global ptr, align 8

; Function Attrs: inlinehint nounwind uwtable
define available_externally i32 @putchar(i32 noundef %0) #4 {
  %2 = alloca i32, align 4
  store i32 %0, ptr %2, align 4, !tbaa !9
  %3 = load i32, ptr %2, align 4, !tbaa !9
  %4 = load ptr, ptr @stdout, align 8, !tbaa !35
  %5 = call i32 @putc(i32 noundef %3, ptr noundef %4)
  ret i32 %5
}

; Function Attrs: nounwind uwtable
define dso_local ptr @get_revision_mark(ptr noundef %0, ptr noundef %1) #0 {
  %3 = alloca ptr, align 8
  %4 = alloca ptr, align 8
  %5 = alloca ptr, align 8
  store ptr %0, ptr %4, align 8, !tbaa !88
  store ptr %1, ptr %5, align 8, !tbaa !24
  %6 = load ptr, ptr %5, align 8, !tbaa !24
  %7 = getelementptr inbounds nuw %struct.commit, ptr %6, i32 0, i32 0
  %8 = load i32, ptr %7, align 8
  %9 = lshr i32 %8, 4
  %10 = and i32 %9, 32
  %11 = icmp ne i32 %10, 0
  br i1 %11, label %12, label %13

12:                                               ; preds = %2
  store ptr @.str.29, ptr %3, align 8
  br label %70

13:                                               ; preds = %2
  %14 = load ptr, ptr %5, align 8, !tbaa !24
  %15 = getelementptr inbounds nuw %struct.commit, ptr %14, i32 0, i32 0
  %16 = load i32, ptr %15, align 8
  %17 = lshr i32 %16, 4
  %18 = and i32 %17, 2
  %19 = icmp ne i32 %18, 0
  br i1 %19, label %20, label %21

20:                                               ; preds = %13
  store ptr @.str.30, ptr %3, align 8
  br label %70

21:                                               ; preds = %13
  %22 = load ptr, ptr %5, align 8, !tbaa !24
  %23 = getelementptr inbounds nuw %struct.commit, ptr %22, i32 0, i32 0
  %24 = load i32, ptr %23, align 8
  %25 = lshr i32 %24, 4
  %26 = and i32 %25, 512
  %27 = icmp ne i32 %26, 0
  br i1 %27, label %28, label %29

28:                                               ; preds = %21
  store ptr @.str.31, ptr %3, align 8
  br label %70

29:                                               ; preds = %21
  %30 = load ptr, ptr %4, align 8, !tbaa !88
  %31 = icmp ne ptr %30, null
  br i1 %31, label %32, label %40

32:                                               ; preds = %29
  %33 = load ptr, ptr %4, align 8, !tbaa !88
  %34 = getelementptr inbounds nuw %struct.rev_info, ptr %33, i32 0, i32 15
  %35 = load i64, ptr %34, align 8
  %36 = lshr i64 %35, 25
  %37 = and i64 %36, 1
  %38 = trunc i64 %37 to i32
  %39 = icmp ne i32 %38, 0
  br i1 %39, label %40, label %49

40:                                               ; preds = %32, %29
  %41 = load ptr, ptr %5, align 8, !tbaa !24
  %42 = getelementptr inbounds nuw %struct.commit, ptr %41, i32 0, i32 0
  %43 = load i32, ptr %42, align 8
  %44 = lshr i32 %43, 4
  %45 = and i32 %44, 256
  %46 = icmp ne i32 %45, 0
  br i1 %46, label %47, label %48

47:                                               ; preds = %40
  store ptr @.str.32, ptr %3, align 8
  br label %70

48:                                               ; preds = %40
  store ptr @.str.33, ptr %3, align 8
  br label %70

49:                                               ; preds = %32
  %50 = load ptr, ptr %4, align 8, !tbaa !88
  %51 = getelementptr inbounds nuw %struct.rev_info, ptr %50, i32 0, i32 42
  %52 = load ptr, ptr %51, align 8, !tbaa !264
  %53 = icmp ne ptr %52, null
  br i1 %53, label %54, label %55

54:                                               ; preds = %49
  store ptr @.str.34, ptr %3, align 8
  br label %70

55:                                               ; preds = %49
  %56 = load ptr, ptr %4, align 8, !tbaa !88
  %57 = getelementptr inbounds nuw %struct.rev_info, ptr %56, i32 0, i32 15
  %58 = load i64, ptr %57, align 8
  %59 = lshr i64 %58, 34
  %60 = and i64 %59, 1
  %61 = trunc i64 %60 to i32
  %62 = icmp ne i32 %61, 0
  br i1 %62, label %63, label %64

63:                                               ; preds = %55
  store ptr @.str.35, ptr %3, align 8
  br label %70

64:                                               ; preds = %55
  br label %65

65:                                               ; preds = %64
  br label %66

66:                                               ; preds = %65
  br label %67

67:                                               ; preds = %66
  br label %68

68:                                               ; preds = %67
  br label %69

69:                                               ; preds = %68
  store ptr @.str.36, ptr %3, align 8
  br label %70

70:                                               ; preds = %69, %63, %54, %48, %47, %28, %20, %12
  %71 = load ptr, ptr %3, align 8
  ret ptr %71
}

; Function Attrs: nounwind uwtable
define dso_local void @put_revision_mark(ptr noundef %0, ptr noundef %1) #0 {
  %3 = alloca ptr, align 8
  %4 = alloca ptr, align 8
  %5 = alloca ptr, align 8
  %6 = alloca i32, align 4
  store ptr %0, ptr %3, align 8, !tbaa !88
  store ptr %1, ptr %4, align 8, !tbaa !24
  call void @llvm.lifetime.start.p0(i64 8, ptr %5) #12
  %7 = load ptr, ptr %3, align 8, !tbaa !88
  %8 = load ptr, ptr %4, align 8, !tbaa !24
  %9 = call ptr @get_revision_mark(ptr noundef %7, ptr noundef %8)
  store ptr %9, ptr %5, align 8, !tbaa !39
  %10 = load ptr, ptr %5, align 8, !tbaa !39
  %11 = call i64 @strlen(ptr noundef %10) #14
  %12 = icmp ne i64 %11, 0
  br i1 %12, label %14, label %13

13:                                               ; preds = %2
  store i32 1, ptr %6, align 4
  br label %19

14:                                               ; preds = %2
  %15 = load ptr, ptr %5, align 8, !tbaa !39
  %16 = load ptr, ptr @stdout, align 8, !tbaa !35
  %17 = call i32 @fputs(ptr noundef %15, ptr noundef %16)
  %18 = call i32 @putchar(i32 noundef 32)
  store i32 0, ptr %6, align 4
  br label %19

19:                                               ; preds = %14, %13
  call void @llvm.lifetime.end.p0(i64 8, ptr %5) #12
  %20 = load i32, ptr %6, align 4
  switch i32 %20, label %22 [
    i32 0, label %21
    i32 1, label %21
  ]

21:                                               ; preds = %19, %19
  ret void

22:                                               ; preds = %19
  unreachable
}