; Function Attrs: nofree nounwind uwtable
define dso_local void @put_revision_mark(ptr noundef readonly %0, ptr noundef readonly captures(none) %1) local_unnamed_addr #19 {
  %3 = load i32, ptr %1, align 8
  %4 = and i32 %3, 512
  %.not.i = icmp eq i32 %4, 0
  br i1 %.not.i, label %5, label %get_revision_mark.exit

5:                                                ; preds = %2
  %6 = and i32 %3, 32
  %.not10.i = icmp eq i32 %6, 0
  br i1 %.not10.i, label %7, label %get_revision_mark.exit

7:                                                ; preds = %5
  %8 = and i32 %3, 8192
  %.not11.i = icmp eq i32 %8, 0
  br i1 %.not11.i, label %9, label %get_revision_mark.exit

9:                                                ; preds = %7
  %.not12.i = icmp eq ptr %0, null
  br i1 %.not12.i, label %14, label %10

10:                                               ; preds = %9
  %11 = getelementptr inbounds nuw i8, ptr %0, i64 288
  %12 = load i64, ptr %11, align 8
  %13 = and i64 %12, 33554432
  %.not13.i = icmp eq i64 %13, 0
  br i1 %.not13.i, label %16, label %14

14:                                               ; preds = %10, %9
  %15 = and i32 %3, 4096
  %.not16.i = icmp eq i32 %15, 0
  %.str.33..str.32.i = select i1 %.not16.i, ptr @.str.33, ptr @.str.32
  br label %get_revision_mark.exit

16:                                               ; preds = %10
  %17 = getelementptr inbounds nuw i8, ptr %0, i64 1400
  %18 = load ptr, ptr %17, align 8, !tbaa !227
  %.not14.i = icmp eq ptr %18, null
  br i1 %.not14.i, label %19, label %get_revision_mark.exit

19:                                               ; preds = %16
  %20 = and i64 %12, 17179869184
  %.not15.i = icmp eq i64 %20, 0
  %.str.36..str.35.i = select i1 %.not15.i, ptr @.str.36, ptr @.str.35
  br label %get_revision_mark.exit

get_revision_mark.exit:                           ; preds = %2, %5, %7, %14, %16, %19
  %.0.i = phi ptr [ @.str.29, %2 ], [ @.str.30, %5 ], [ @.str.31, %7 ], [ %.str.33..str.32.i, %14 ], [ @.str.34, %16 ], [ %.str.36..str.35.i, %19 ]
  %char0 = load i8, ptr %.0.i, align 1
  %.not = icmp eq i8 %char0, 0
  br i1 %.not, label %26, label %21

21:                                               ; preds = %get_revision_mark.exit
  %22 = load ptr, ptr @stdout, align 8, !tbaa !241
  %23 = tail call i32 @fputs(ptr noundef nonnull %.0.i, ptr noundef %22)
  %24 = load ptr, ptr @stdout, align 8, !tbaa !241
  %25 = tail call i32 @putc(i32 noundef 32, ptr noundef %24)
  br label %26

26:                                               ; preds = %get_revision_mark.exit, %21
  ret void
}